target datalayout = "e-m:e-p270:32:32-p271:32:32-p272:64:64-i64:64-i128:128-f80:128-n8:16:32:64-S128"
target triple = "x86_64-pc-linux-gnu"

@.str.1 = private unnamed_addr constant [18 x i8] c"PMIX_SERVER_URI51\00", align 1
@.str.4 = private unnamed_addr constant [18 x i8] c"PMIX_SERVER_URI41\00", align 1
@.str.7 = private unnamed_addr constant [17 x i8] c"PMIX_SERVER_URI4\00", align 1
@.str.10 = private unnamed_addr constant [17 x i8] c"PMIX_SERVER_URI3\00", align 1
@.str.13 = private unnamed_addr constant [18 x i8] c"PMIX_SERVER_URI21\00", align 1
@.str.16 = private unnamed_addr constant [17 x i8] c"PMIX_SERVER_URI2\00", align 1

; Function Attrs: nounwind uwtable
define i32 @pmix_ptl_base_check_server_uris(ptr noundef %0, ptr noundef %1) #0 {
  %3 = alloca i32, align 4
  %4 = alloca ptr, align 8
  %5 = alloca ptr, align 8
  %6 = alloca ptr, align 8
  %7 = alloca i32, align 4
  %8 = alloca i32, align 4
  store ptr %0, ptr %4, align 8, !tbaa !3
  store ptr %1, ptr %5, align 8, !tbaa !62
  call void @llvm.lifetime.start.p0(i64 8, ptr %6) #13
  call void @llvm.lifetime.start.p0(i64 4, ptr %7) #13
  %9 = call ptr @getenv(ptr noundef @.str.1) #13
  store ptr %9, ptr %6, align 8, !tbaa !8
  %10 = icmp ne ptr null, %9
  br i1 %10, label %11, label %17

11:                                               ; preds = %2
  %12 = load ptr, ptr %4, align 8, !tbaa !3
  %13 = call i32 @pmix_ptl_base_set_peer(ptr noundef %12, ptr noundef @.str.1)
  store i32 %13, ptr %7, align 4, !tbaa !60
  %14 = load ptr, ptr %6, align 8, !tbaa !8
  %15 = load ptr, ptr %5, align 8, !tbaa !62
  store ptr %14, ptr %15, align 8, !tbaa !8
  %16 = load i32, ptr %7, align 4, !tbaa !60
  store i32 %16, ptr %3, align 4
  store i32 1, ptr %8, align 4
  br label %63

17:                                               ; preds = %2
  %18 = call ptr @getenv(ptr noundef @.str.4) #13
  store ptr %18, ptr %6, align 8, !tbaa !8
  %19 = icmp ne ptr null, %18
  br i1 %19, label %20, label %26

20:                                               ; preds = %17
  %21 = load ptr, ptr %4, align 8, !tbaa !3
  %22 = call i32 @pmix_ptl_base_set_peer(ptr noundef %21, ptr noundef @.str.4)
  store i32 %22, ptr %7, align 4, !tbaa !60
  %23 = load ptr, ptr %6, align 8, !tbaa !8
  %24 = load ptr, ptr %5, align 8, !tbaa !62
  store ptr %23, ptr %24, align 8, !tbaa !8
  %25 = load i32, ptr %7, align 4, !tbaa !60
  store i32 %25, ptr %3, align 4
  store i32 1, ptr %8, align 4
  br label %63

26:                                               ; preds = %17
  %27 = call ptr @getenv(ptr noundef @.str.7) #13
  store ptr %27, ptr %6, align 8, !tbaa !8
  %28 = icmp ne ptr null, %27
  br i1 %28, label %29, label %35

29:                                               ; preds = %26
  %30 = load ptr, ptr %4, align 8, !tbaa !3
  %31 = call i32 @pmix_ptl_base_set_peer(ptr noundef %30, ptr noundef @.str.7)
  store i32 %31, ptr %7, align 4, !tbaa !60
  %32 = load ptr, ptr %6, align 8, !tbaa !8
  %33 = load ptr, ptr %5, align 8, !tbaa !62
  store ptr %32, ptr %33, align 8, !tbaa !8
  %34 = load i32, ptr %7, align 4, !tbaa !60
  store i32 %34, ptr %3, align 4
  store i32 1, ptr %8, align 4
  br label %63

35:                                               ; preds = %26
  %36 = call ptr @getenv(ptr noundef @.str.10) #13
  store ptr %36, ptr %6, align 8, !tbaa !8
  %37 = icmp ne ptr null, %36
  br i1 %37, label %38, label %44

38:                                               ; preds = %35
  %39 = load ptr, ptr %4, align 8, !tbaa !3
  %40 = call i32 @pmix_ptl_base_set_peer(ptr noundef %39, ptr noundef @.str.10)
  store i32 %40, ptr %7, align 4, !tbaa !60
  %41 = load ptr, ptr %6, align 8, !tbaa !8
  %42 = load ptr, ptr %5, align 8, !tbaa !62
  store ptr %41, ptr %42, align 8, !tbaa !8
  %43 = load i32, ptr %7, align 4, !tbaa !60
  store i32 %43, ptr %3, align 4
  store i32 1, ptr %8, align 4
  br label %63

44:                                               ; preds = %35
  %45 = call ptr @getenv(ptr noundef @.str.13) #13
  store ptr %45, ptr %6, align 8, !tbaa !8
  %46 = icmp ne ptr null, %45
  br i1 %46, label %47, label %53

47:                                               ; preds = %44
  %48 = load ptr, ptr %4, align 8, !tbaa !3
  %49 = call i32 @pmix_ptl_base_set_peer(ptr noundef %48, ptr noundef @.str.13)
  store i32 %49, ptr %7, align 4, !tbaa !60
  %50 = load ptr, ptr %6, align 8, !tbaa !8
  %51 = load ptr, ptr %5, align 8, !tbaa !62
  store ptr %50, ptr %51, align 8, !tbaa !8
  %52 = load i32, ptr %7, align 4, !tbaa !60
  store i32 %52, ptr %3, align 4
  store i32 1, ptr %8, align 4
  br label %63

53:                                               ; preds = %44
  %54 = call ptr @getenv(ptr noundef @.str.16) #13
  store ptr %54, ptr %6, align 8, !tbaa !8
  %55 = icmp ne ptr null, %54
  br i1 %55, label %56, label %62

56:                                               ; preds = %53
  %57 = load ptr, ptr %4, align 8, !tbaa !3
  %58 = call i32 @pmix_ptl_base_set_peer(ptr noundef %57, ptr noundef @.str.16)
  store i32 %58, ptr %7, align 4, !tbaa !60
  %59 = load ptr, ptr %6, align 8, !tbaa !8
  %60 = load ptr, ptr %5, align 8, !tbaa !62
  store ptr %59, ptr %60, align 8, !tbaa !8
  %61 = load i32, ptr %7, align 4, !tbaa !60
  store i32 %61, ptr %3, align 4
  store i32 1, ptr %8, align 4
  br label %63

62:                                               ; preds = %53
  store i32 -25, ptr %3, align 4
  store i32 1, ptr %8, align 4
  br label %63

63:                                               ; preds = %62, %56, %47, %38, %29, %20, %11
  call void @llvm.lifetime.end.p0(i64 4, ptr %7) #13
  call void @llvm.lifetime.end.p0(i64 8, ptr %6) #13
  %64 = load i32, ptr %3, align 4
  ret i32 %64
}