; Function Attrs: nounwind uwtable
define range(i32 -31, 1) i32 @pmix_ptl_base_check_server_uris(ptr noundef captures(none) %0, ptr noundef writeonly captures(none) %1) local_unnamed_addr #0 {
  %3 = tail call ptr @getenv(ptr noundef nonnull @.str.1) #20
  %.not = icmp eq ptr %3, null
  br i1 %.not, label %4, label %.sink.split

4:                                                ; preds = %2
  %5 = tail call ptr @getenv(ptr noundef nonnull @.str.4) #20
  %.not30 = icmp eq ptr %5, null
  br i1 %.not30, label %6, label %.sink.split

6:                                                ; preds = %4
  %7 = tail call ptr @getenv(ptr noundef nonnull @.str.7) #20
  %.not31 = icmp eq ptr %7, null
  br i1 %.not31, label %8, label %.sink.split

8:                                                ; preds = %6
  %9 = tail call ptr @getenv(ptr noundef nonnull @.str.10) #20
  %.not32 = icmp eq ptr %9, null
  br i1 %.not32, label %10, label %.sink.split

10:                                               ; preds = %8
  %11 = tail call ptr @getenv(ptr noundef nonnull @.str.13) #20
  %.not33 = icmp eq ptr %11, null
  br i1 %.not33, label %12, label %.sink.split

12:                                               ; preds = %10
  %13 = tail call ptr @getenv(ptr noundef nonnull @.str.16) #20
  %.not34 = icmp eq ptr %13, null
  br i1 %.not34, label %15, label %.sink.split

.sink.split:                                      ; preds = %12, %10, %8, %6, %4, %2
  %.str.16.sink = phi ptr [ @.str.1, %2 ], [ @.str.4, %4 ], [ @.str.7, %6 ], [ @.str.10, %8 ], [ @.str.13, %10 ], [ @.str.16, %12 ]
  %.sink = phi ptr [ %3, %2 ], [ %5, %4 ], [ %7, %6 ], [ %9, %8 ], [ %11, %10 ], [ %13, %12 ]
  %14 = tail call i32 @pmix_ptl_base_set_peer(ptr noundef %0, ptr noundef nonnull %.str.16.sink)
  store ptr %.sink, ptr %1, align 8, !tbaa !29
  br label %15

15:                                               ; preds = %.sink.split, %12
  %.0 = phi i32 [ -25, %12 ], [ %14, %.sink.split ]
  ret i32 %.0
}